; Function Attrs: uwtable
define noundef i32 @_ZTv0_n144_N20colvarbias_restraint4initERKNSt7__cxx1112basic_stringIcSt11char_traitsIcESaIcEEE(ptr noundef %0, ptr noundef nonnull align 8 dereferenceable(32) %1) unnamed_addr #3 align 2 personality ptr @__gxx_personality_v0 {
  %3 = load ptr, ptr %0, align 8
  %4 = getelementptr inbounds i8, ptr %3, i64 -144
  %5 = load i64, ptr %4, align 8
  %6 = getelementptr inbounds i8, ptr %0, i64 %5
  %7 = load ptr, ptr %6, align 8
  %8 = getelementptr i8, ptr %7, i64 -24
  %9 = load i64, ptr %8, align 8
  %10 = getelementptr inbounds i8, ptr %6, i64 %9
  %11 = tail call noundef i32 @_ZN10colvarbias4initERKNSt7__cxx1112basic_stringIcSt11char_traitsIcESaIcEEE(ptr noundef nonnull align 8 dereferenceable(312) %10, ptr noundef nonnull align 8 dereferenceable(32) %1)
  %12 = load ptr, ptr %6, align 8
  %13 = getelementptr i8, ptr %12, i64 -40
  %14 = load i64, ptr %13, align 8
  %15 = getelementptr inbounds i8, ptr %6, i64 %14
  %16 = tail call noundef i32 @_ZN10colvardeps6enableEibb(ptr noundef nonnull align 8 dereferenceable(120) %15, i32 noundef 3, i1 noundef zeroext false, i1 noundef zeroext true)
  %17 = load ptr, ptr %6, align 8
  %18 = getelementptr i8, ptr %17, i64 -48
  %19 = load i64, ptr %18, align 8
  %20 = getelementptr inbounds i8, ptr %6, i64 %19
  %21 = tail call noundef i32 @_ZN13colvarbias_ti4initERKNSt7__cxx1112basic_stringIcSt11char_traitsIcESaIcEEE(ptr noundef nonnull align 8 dereferenceable(72) %20, ptr noundef nonnull align 8 dereferenceable(32) %1)
  ret i32 0
}